target datalayout = "e-m:e-p270:32:32-p271:32:32-p272:64:64-i64:64-i128:128-f80:128-n8:16:32:64-S128"
target triple = "x86_64-pc-linux-gnu"

%"class.std::__cxx11::basic_string" = type { %"struct.std::__cxx11::basic_string<char>::_Alloc_hider", i64, %union.anon }
%"struct.std::__cxx11::basic_string<char>::_Alloc_hider" = type { ptr }
%union.anon = type { i64, [8 x i8] }
%"struct.std::pair" = type { i64, %"class.std::__cxx11::basic_string" }
%"class.__gnu_cxx::__normal_iterator.125" = type { ptr }
%"struct.__gnu_cxx::__ops::_Iter_comp_iter" = type { i8 }

; Function Attrs: mustprogress nounwind uwtable
define linkonce_odr void @_ZN9__gnu_cxx17__normal_iteratorIPSt4pairImNSt7__cxx1112basic_stringIcSt11char_traitsIcESaIcEEEESt6vectorIS8_SaIS8_EEEC2ERKS9_(ptr noundef nonnull align 8 dereferenceable(8) %0, ptr noundef nonnull align 8 dereferenceable(8) %1) unnamed_addr #7 comdat align 2 {
  %3 = alloca ptr, align 8
  %4 = alloca ptr, align 8
  store ptr %0, ptr %3, align 8, !tbaa !421
  store ptr %1, ptr %4, align 8, !tbaa !423
  %5 = load ptr, ptr %3, align 8
  %6 = getelementptr inbounds nuw %"class.__gnu_cxx::__normal_iterator.125", ptr %5, i32 0, i32 0
  %7 = load ptr, ptr %4, align 8, !tbaa !423
  %8 = load ptr, ptr %7, align 8, !tbaa !416
  store ptr %8, ptr %6, align 8, !tbaa !425
  ret void
}

; Function Attrs: mustprogress nounwind uwtable
define linkonce_odr noundef nonnull align 8 dereferenceable(8) ptr @_ZNK9__gnu_cxx17__normal_iteratorIPSt4pairImNSt7__cxx1112basic_stringIcSt11char_traitsIcESaIcEEEESt6vectorIS8_SaIS8_EEE4baseEv(ptr noundef nonnull align 8 dereferenceable(8) %0) #7 comdat align 2 {
  %2 = alloca ptr, align 8
  store ptr %0, ptr %2, align 8, !tbaa !421
  %3 = load ptr, ptr %2, align 8
  %4 = getelementptr inbounds nuw %"class.__gnu_cxx::__normal_iterator.125", ptr %3, i32 0, i32 0
  ret ptr %4
}

; Function Attrs: mustprogress nounwind uwtable
define linkonce_odr ptr @_ZNK9__gnu_cxx17__normal_iteratorIPSt4pairImNSt7__cxx1112basic_stringIcSt11char_traitsIcESaIcEEEESt6vectorIS8_SaIS8_EEEplEl(ptr noundef nonnull align 8 dereferenceable(8) %0, i64 noundef %1) #7 comdat align 2 {
  %3 = alloca %"class.__gnu_cxx::__normal_iterator.125", align 8
  %4 = alloca ptr, align 8
  %5 = alloca i64, align 8
  %6 = alloca ptr, align 8
  store ptr %0, ptr %4, align 8, !tbaa !421
  store i64 %1, ptr %5, align 8, !tbaa !133
  %7 = load ptr, ptr %4, align 8
  call void @llvm.lifetime.start.p0(i64 8, ptr %6) #3
  %8 = getelementptr inbounds nuw %"class.__gnu_cxx::__normal_iterator.125", ptr %7, i32 0, i32 0
  %9 = load ptr, ptr %8, align 8, !tbaa !425
  %10 = load i64, ptr %5, align 8, !tbaa !133
  %11 = getelementptr inbounds %"struct.std::pair", ptr %9, i64 %10
  store ptr %11, ptr %6, align 8, !tbaa !416
  call void @_ZN9__gnu_cxx17__normal_iteratorIPSt4pairImNSt7__cxx1112basic_stringIcSt11char_traitsIcESaIcEEEESt6vectorIS8_SaIS8_EEEC2ERKS9_(ptr noundef nonnull align 8 dereferenceable(8) %3, ptr noundef nonnull align 8 dereferenceable(8) %6) #3
  call void @llvm.lifetime.end.p0(i64 8, ptr %6) #3
  %12 = getelementptr inbounds nuw %"class.__gnu_cxx::__normal_iterator.125", ptr %3, i32 0, i32 0
  %13 = load ptr, ptr %12, align 8
  ret ptr %13
}

; Function Attrs: inlinehint mustprogress nounwind uwtable
define linkonce_odr noundef i64 @_ZN9__gnu_cxxmiIPSt4pairImNSt7__cxx1112basic_stringIcSt11char_traitsIcESaIcEEEESt6vectorIS8_SaIS8_EEEENS_17__normal_iteratorIT_T0_E15difference_typeERKSG_SJ_(ptr noundef nonnull align 8 dereferenceable(8) %0, ptr noundef nonnull align 8 dereferenceable(8) %1) #8 comdat {
  %3 = alloca ptr, align 8
  %4 = alloca ptr, align 8
  store ptr %0, ptr %3, align 8, !tbaa !421
  store ptr %1, ptr %4, align 8, !tbaa !421
  %5 = load ptr, ptr %3, align 8, !tbaa !421
  %6 = call noundef nonnull align 8 dereferenceable(8) ptr @_ZNK9__gnu_cxx17__normal_iteratorIPSt4pairImNSt7__cxx1112basic_stringIcSt11char_traitsIcESaIcEEEESt6vectorIS8_SaIS8_EEE4baseEv(ptr noundef nonnull align 8 dereferenceable(8) %5) #3
  %7 = load ptr, ptr %6, align 8, !tbaa !416
  %8 = load ptr, ptr %4, align 8, !tbaa !421
  %9 = call noundef nonnull align 8 dereferenceable(8) ptr @_ZNK9__gnu_cxx17__normal_iteratorIPSt4pairImNSt7__cxx1112basic_stringIcSt11char_traitsIcESaIcEEEESt6vectorIS8_SaIS8_EEE4baseEv(ptr noundef nonnull align 8 dereferenceable(8) %8) #3
  %10 = load ptr, ptr %9, align 8, !tbaa !416
  %11 = ptrtoint ptr %7 to i64
  %12 = ptrtoint ptr %10 to i64
  %13 = sub i64 %11, %12
  %14 = sdiv exact i64 %13, 40
  ret i64 %14
}

; Function Attrs: mustprogress uwtable
define internal void @"_ZSt21__inplace_stable_sortIN9__gnu_cxx17__normal_iteratorIPSt4pairImNSt7__cxx1112basic_stringIcSt11char_traitsIcESaIcEEEESt6vectorIS9_SaIS9_EEEENS0_5__ops15_Iter_comp_iterIZNK8LightGBM4GBDT17SaveModelToStringEiiiE3$_0EEEvT_SL_T0_"(ptr %0, ptr %1) #4 {
  %3 = alloca %"class.__gnu_cxx::__normal_iterator.125", align 8
  %4 = alloca %"class.__gnu_cxx::__normal_iterator.125", align 8
  %5 = alloca %"struct.__gnu_cxx::__ops::_Iter_comp_iter", align 1
  %6 = alloca %"class.__gnu_cxx::__normal_iterator.125", align 8
  %7 = alloca %"class.__gnu_cxx::__normal_iterator.125", align 8
  %8 = alloca %"struct.__gnu_cxx::__ops::_Iter_comp_iter", align 1
  %9 = alloca %"class.__gnu_cxx::__normal_iterator.125", align 8
  %10 = alloca %"class.__gnu_cxx::__normal_iterator.125", align 8
  %11 = alloca %"class.__gnu_cxx::__normal_iterator.125", align 8
  %12 = alloca %"struct.__gnu_cxx::__ops::_Iter_comp_iter", align 1
  %13 = alloca %"class.__gnu_cxx::__normal_iterator.125", align 8
  %14 = alloca %"class.__gnu_cxx::__normal_iterator.125", align 8
  %15 = alloca %"struct.__gnu_cxx::__ops::_Iter_comp_iter", align 1
  %16 = alloca %"class.__gnu_cxx::__normal_iterator.125", align 8
  %17 = alloca %"class.__gnu_cxx::__normal_iterator.125", align 8
  %18 = alloca %"class.__gnu_cxx::__normal_iterator.125", align 8
  %19 = alloca %"struct.__gnu_cxx::__ops::_Iter_comp_iter", align 1
  %20 = getelementptr inbounds nuw %"class.__gnu_cxx::__normal_iterator.125", ptr %3, i32 0, i32 0
  store ptr %0, ptr %20, align 8
  %21 = getelementptr inbounds nuw %"class.__gnu_cxx::__normal_iterator.125", ptr %4, i32 0, i32 0
  store ptr %1, ptr %21, align 8
  %22 = call noundef i64 @_ZN9__gnu_cxxmiIPSt4pairImNSt7__cxx1112basic_stringIcSt11char_traitsIcESaIcEEEESt6vectorIS8_SaIS8_EEEENS_17__normal_iteratorIT_T0_E15difference_typeERKSG_SJ_(ptr noundef nonnull align 8 dereferenceable(8) %4, ptr noundef nonnull align 8 dereferenceable(8) %3) #3
  %23 = icmp slt i64 %22, 15
  br i1 %23, label %24, label %29

24:                                               ; preds = %2
  call void @llvm.memcpy.p0.p0.i64(ptr align 8 %6, ptr align 8 %3, i64 8, i1 false), !tbaa.struct !464
  call void @llvm.memcpy.p0.p0.i64(ptr align 8 %7, ptr align 8 %4, i64 8, i1 false), !tbaa.struct !464
  call void @llvm.memcpy.p0.p0.i64(ptr align 1 %8, ptr align 1 %5, i64 1, i1 false), !tbaa.struct !131
  %25 = getelementptr inbounds nuw %"class.__gnu_cxx::__normal_iterator.125", ptr %6, i32 0, i32 0
  %26 = load ptr, ptr %25, align 8
  %27 = getelementptr inbounds nuw %"class.__gnu_cxx::__normal_iterator.125", ptr %7, i32 0, i32 0
  %28 = load ptr, ptr %27, align 8
  call void @"_ZSt16__insertion_sortIN9__gnu_cxx17__normal_iteratorIPSt4pairImNSt7__cxx1112basic_stringIcSt11char_traitsIcESaIcEEEESt6vectorIS9_SaIS9_EEEENS0_5__ops15_Iter_comp_iterIZNK8LightGBM4GBDT17SaveModelToStringEiiiE3$_0EEEvT_SL_T0_"(ptr %26, ptr %28)
  br label %50

29:                                               ; preds = %2
  call void @llvm.lifetime.start.p0(i64 8, ptr %9) #3
  %30 = call noundef i64 @_ZN9__gnu_cxxmiIPSt4pairImNSt7__cxx1112basic_stringIcSt11char_traitsIcESaIcEEEESt6vectorIS8_SaIS8_EEEENS_17__normal_iteratorIT_T0_E15difference_typeERKSG_SJ_(ptr noundef nonnull align 8 dereferenceable(8) %4, ptr noundef nonnull align 8 dereferenceable(8) %3) #3
  %31 = sdiv i64 %30, 2
  %32 = call ptr @_ZNK9__gnu_cxx17__normal_iteratorIPSt4pairImNSt7__cxx1112basic_stringIcSt11char_traitsIcESaIcEEEESt6vectorIS8_SaIS8_EEEplEl(ptr noundef nonnull align 8 dereferenceable(8) %3, i64 noundef %31) #3
  %33 = getelementptr inbounds nuw %"class.__gnu_cxx::__normal_iterator.125", ptr %9, i32 0, i32 0
  store ptr %32, ptr %33, align 8
  call void @llvm.memcpy.p0.p0.i64(ptr align 8 %10, ptr align 8 %3, i64 8, i1 false), !tbaa.struct !464
  call void @llvm.memcpy.p0.p0.i64(ptr align 8 %11, ptr align 8 %9, i64 8, i1 false), !tbaa.struct !464
  call void @llvm.memcpy.p0.p0.i64(ptr align 1 %12, ptr align 1 %5, i64 1, i1 false), !tbaa.struct !131
  %34 = getelementptr inbounds nuw %"class.__gnu_cxx::__normal_iterator.125", ptr %10, i32 0, i32 0
  %35 = load ptr, ptr %34, align 8
  %36 = getelementptr inbounds nuw %"class.__gnu_cxx::__normal_iterator.125", ptr %11, i32 0, i32 0
  %37 = load ptr, ptr %36, align 8
  call void @"_ZSt21__inplace_stable_sortIN9__gnu_cxx17__normal_iteratorIPSt4pairImNSt7__cxx1112basic_stringIcSt11char_traitsIcESaIcEEEESt6vectorIS9_SaIS9_EEEENS0_5__ops15_Iter_comp_iterIZNK8LightGBM4GBDT17SaveModelToStringEiiiE3$_0EEEvT_SL_T0_"(ptr %35, ptr %37)
  call void @llvm.memcpy.p0.p0.i64(ptr align 8 %13, ptr align 8 %9, i64 8, i1 false), !tbaa.struct !464
  call void @llvm.memcpy.p0.p0.i64(ptr align 8 %14, ptr align 8 %4, i64 8, i1 false), !tbaa.struct !464
  call void @llvm.memcpy.p0.p0.i64(ptr align 1 %15, ptr align 1 %5, i64 1, i1 false), !tbaa.struct !131
  %38 = getelementptr inbounds nuw %"class.__gnu_cxx::__normal_iterator.125", ptr %13, i32 0, i32 0
  %39 = load ptr, ptr %38, align 8
  %40 = getelementptr inbounds nuw %"class.__gnu_cxx::__normal_iterator.125", ptr %14, i32 0, i32 0
  %41 = load ptr, ptr %40, align 8
  call void @"_ZSt21__inplace_stable_sortIN9__gnu_cxx17__normal_iteratorIPSt4pairImNSt7__cxx1112basic_stringIcSt11char_traitsIcESaIcEEEESt6vectorIS9_SaIS9_EEEENS0_5__ops15_Iter_comp_iterIZNK8LightGBM4GBDT17SaveModelToStringEiiiE3$_0EEEvT_SL_T0_"(ptr %39, ptr %41)
  call void @llvm.memcpy.p0.p0.i64(ptr align 8 %16, ptr align 8 %3, i64 8, i1 false), !tbaa.struct !464
  call void @llvm.memcpy.p0.p0.i64(ptr align 8 %17, ptr align 8 %9, i64 8, i1 false), !tbaa.struct !464
  call void @llvm.memcpy.p0.p0.i64(ptr align 8 %18, ptr align 8 %4, i64 8, i1 false), !tbaa.struct !464
  %42 = call noundef i64 @_ZN9__gnu_cxxmiIPSt4pairImNSt7__cxx1112basic_stringIcSt11char_traitsIcESaIcEEEESt6vectorIS8_SaIS8_EEEENS_17__normal_iteratorIT_T0_E15difference_typeERKSG_SJ_(ptr noundef nonnull align 8 dereferenceable(8) %9, ptr noundef nonnull align 8 dereferenceable(8) %3) #3
  %43 = call noundef i64 @_ZN9__gnu_cxxmiIPSt4pairImNSt7__cxx1112basic_stringIcSt11char_traitsIcESaIcEEEESt6vectorIS8_SaIS8_EEEENS_17__normal_iteratorIT_T0_E15difference_typeERKSG_SJ_(ptr noundef nonnull align 8 dereferenceable(8) %4, ptr noundef nonnull align 8 dereferenceable(8) %9) #3
  call void @llvm.memcpy.p0.p0.i64(ptr align 1 %19, ptr align 1 %5, i64 1, i1 false), !tbaa.struct !131
  %44 = getelementptr inbounds nuw %"class.__gnu_cxx::__normal_iterator.125", ptr %16, i32 0, i32 0
  %45 = load ptr, ptr %44, align 8
  %46 = getelementptr inbounds nuw %"class.__gnu_cxx::__normal_iterator.125", ptr %17, i32 0, i32 0
  %47 = load ptr, ptr %46, align 8
  %48 = getelementptr inbounds nuw %"class.__gnu_cxx::__normal_iterator.125", ptr %18, i32 0, i32 0
  %49 = load ptr, ptr %48, align 8
  call void @"_ZSt22__merge_without_bufferIN9__gnu_cxx17__normal_iteratorIPSt4pairImNSt7__cxx1112basic_stringIcSt11char_traitsIcESaIcEEEESt6vectorIS9_SaIS9_EEEElNS0_5__ops15_Iter_comp_iterIZNK8LightGBM4GBDT17SaveModelToStringEiiiE3$_0EEEvT_SL_SL_T0_SM_T1_"(ptr %45, ptr %47, ptr %49, i64 noundef %42, i64 noundef %43)
  call void @llvm.lifetime.end.p0(i64 8, ptr %9) #3
  br label %50

50:                                               ; preds = %29, %24
  ret void
}