; Function Attrs: mustprogress uwtable
define internal fastcc void @"_ZSt21__inplace_stable_sortIN9__gnu_cxx17__normal_iteratorIPSt4pairImNSt7__cxx1112basic_stringIcSt11char_traitsIcESaIcEEEESt6vectorIS9_SaIS9_EEEENS0_5__ops15_Iter_comp_iterIZNK8LightGBM4GBDT17SaveModelToStringEiiiE3$_0EEEvT_SL_T0_"(ptr %0, ptr %1) unnamed_addr #3 {
  %3 = ptrtoint ptr %1 to i64
  %4 = ptrtoint ptr %0 to i64
  %5 = sub i64 %3, %4
  %6 = icmp slt i64 %5, 600
  br i1 %6, label %common.ret, label %7

common.ret:                                       ; preds = %2
  tail call fastcc void @"_ZSt16__insertion_sortIN9__gnu_cxx17__normal_iteratorIPSt4pairImNSt7__cxx1112basic_stringIcSt11char_traitsIcESaIcEEEESt6vectorIS9_SaIS9_EEEENS0_5__ops15_Iter_comp_iterIZNK8LightGBM4GBDT17SaveModelToStringEiiiE3$_0EEEvT_SL_T0_"(ptr %0, ptr %1)
  br label %common.ret25

common.ret25:                                     ; preds = %7, %common.ret
  ret void

7:                                                ; preds = %2
  %8 = udiv exact i64 %5, 40
  %9 = lshr i64 %8, 1
  %10 = getelementptr inbounds nuw %"struct.std::pair", ptr %0, i64 %9
  tail call fastcc void @"_ZSt21__inplace_stable_sortIN9__gnu_cxx17__normal_iteratorIPSt4pairImNSt7__cxx1112basic_stringIcSt11char_traitsIcESaIcEEEESt6vectorIS9_SaIS9_EEEENS0_5__ops15_Iter_comp_iterIZNK8LightGBM4GBDT17SaveModelToStringEiiiE3$_0EEEvT_SL_T0_"(ptr %0, ptr %10)
  tail call fastcc void @"_ZSt21__inplace_stable_sortIN9__gnu_cxx17__normal_iteratorIPSt4pairImNSt7__cxx1112basic_stringIcSt11char_traitsIcESaIcEEEESt6vectorIS9_SaIS9_EEEENS0_5__ops15_Iter_comp_iterIZNK8LightGBM4GBDT17SaveModelToStringEiiiE3$_0EEEvT_SL_T0_"(ptr %10, ptr %1)
  %11 = ptrtoint ptr %10 to i64
  %12 = sub i64 %3, %11
  %13 = sdiv exact i64 %12, 40
  tail call fastcc void @"_ZSt22__merge_without_bufferIN9__gnu_cxx17__normal_iteratorIPSt4pairImNSt7__cxx1112basic_stringIcSt11char_traitsIcESaIcEEEESt6vectorIS9_SaIS9_EEEElNS0_5__ops15_Iter_comp_iterIZNK8LightGBM4GBDT17SaveModelToStringEiiiE3$_0EEEvT_SL_SL_T0_SM_T1_"(ptr %0, ptr %10, ptr %1, i64 noundef %9, i64 noundef %13)
  br label %common.ret25
}